; Function Attrs: nounwind uwtable
define noalias nonnull ptr @l_Std_Time_Duration_add(ptr noundef readonly captures(none) %0, ptr noundef readonly captures(none) %1) local_unnamed_addr #0 {
  %3 = getelementptr inbounds nuw i8, ptr %0, i64 8
  %4 = load ptr, ptr %3, align 8, !tbaa !4
  %5 = load ptr, ptr @l_Std_Time_Duration_ofNanoseconds___closed__1, align 8, !tbaa !4
  %6 = ptrtoint ptr %4 to i64
  %7 = and i64 %6, 1
  %.not.i33 = icmp eq i64 %7, 0
  br i1 %.not.i33, label %.critedge.i, label %8, !prof !8

8:                                                ; preds = %2
  %9 = ptrtoint ptr %5 to i64
  %10 = and i64 %9, 1
  %.not7.i = icmp eq i64 %10, 0
  br i1 %.not7.i, label %.critedge.i, label %11, !prof !8

11:                                               ; preds = %8
  %12 = shl i64 %6, 31
  %13 = ashr i64 %12, 32
  %14 = shl i64 %9, 31
  %15 = ashr i64 %14, 32
  %16 = mul nsw i64 %15, %13
  %17 = add nsw i64 %16, 2147483648
  %18 = icmp ult i64 %17, 4294967296
  br i1 %18, label %19, label %24, !prof !14

19:                                               ; preds = %11
  %20 = shl nsw i64 %16, 1
  %21 = and i64 %20, 8589934590
  %22 = or disjoint i64 %21, 1
  %23 = inttoptr i64 %22 to ptr
  br label %lean_int_mul.exit

24:                                               ; preds = %11
  %25 = tail call ptr @lean_big_int64_to_int(i64 noundef range(i64 -4611686016279904256, 4611686018427387905) %16) #3
  br label %lean_int_mul.exit

.critedge.i:                                      ; preds = %8, %2
  %26 = tail call ptr @lean_int_big_mul(ptr noundef %4, ptr noundef %5) #3
  br label %lean_int_mul.exit

lean_int_mul.exit:                                ; preds = %19, %24, %.critedge.i
  %.0.i = phi ptr [ %26, %.critedge.i ], [ %23, %19 ], [ %25, %24 ]
  %27 = getelementptr inbounds nuw i8, ptr %0, i64 16
  %28 = load ptr, ptr %27, align 8, !tbaa !4
  %29 = ptrtoint ptr %.0.i to i64
  %30 = and i64 %29, 1
  %.not.i34 = icmp eq i64 %30, 0
  br i1 %.not.i34, label %50, label %31, !prof !8

31:                                               ; preds = %lean_int_mul.exit
  %32 = ptrtoint ptr %28 to i64
  %33 = and i64 %32, 1
  %.not7.i35 = icmp eq i64 %33, 0
  br i1 %.not7.i35, label %lean_int_add.exit.thread55, label %35, !prof !8

lean_int_add.exit.thread55:                       ; preds = %31
  %34 = tail call ptr @lean_int_big_add(ptr noundef %.0.i, ptr noundef %28) #3
  br label %lean_dec.exit24

35:                                               ; preds = %31
  %36 = shl i64 %29, 31
  %37 = ashr i64 %36, 32
  %38 = shl i64 %32, 31
  %39 = ashr i64 %38, 32
  %40 = add nsw i64 %39, %37
  %41 = add nsw i64 %40, 2147483648
  %42 = icmp ult i64 %41, 4294967296
  br i1 %42, label %43, label %48, !prof !14

43:                                               ; preds = %35
  %44 = shl nsw i64 %40, 1
  %45 = and i64 %44, 8589934590
  %46 = or disjoint i64 %45, 1
  %47 = inttoptr i64 %46 to ptr
  br label %lean_dec.exit24

48:                                               ; preds = %35
  %49 = tail call ptr @lean_big_int64_to_int(i64 noundef range(i64 -4611686016279904256, 4611686018427387905) %40) #3
  br label %lean_dec.exit24

50:                                               ; preds = %lean_int_mul.exit
  %51 = tail call ptr @lean_int_big_add(ptr noundef %.0.i, ptr noundef %28) #3
  %52 = load i32, ptr %.0.i, align 4, !tbaa !9
  %53 = icmp sgt i32 %52, 1
  br i1 %53, label %54, label %56, !prof !14

54:                                               ; preds = %50
  %55 = add nsw i32 %52, -1
  store i32 %55, ptr %.0.i, align 4, !tbaa !9
  br label %lean_dec.exit24

56:                                               ; preds = %50
  %.not.i = icmp eq i32 %52, 0
  br i1 %.not.i, label %lean_dec.exit24, label %57

57:                                               ; preds = %56
  tail call void @lean_dec_ref_cold(ptr noundef nonnull %.0.i) #3
  br label %lean_dec.exit24

lean_dec.exit24:                                  ; preds = %48, %43, %57, %56, %54, %lean_int_add.exit.thread55
  %.0.i3654 = phi ptr [ %34, %lean_int_add.exit.thread55 ], [ %51, %54 ], [ %51, %56 ], [ %51, %57 ], [ %49, %48 ], [ %47, %43 ]
  %58 = getelementptr inbounds nuw i8, ptr %1, i64 8
  %59 = load ptr, ptr %58, align 8, !tbaa !4
  %60 = ptrtoint ptr %59 to i64
  %61 = and i64 %60, 1
  %.not.i38 = icmp eq i64 %61, 0
  br i1 %.not.i38, label %.critedge.i41, label %62, !prof !8

62:                                               ; preds = %lean_dec.exit24
  %63 = ptrtoint ptr %5 to i64
  %64 = and i64 %63, 1
  %.not7.i39 = icmp eq i64 %64, 0
  br i1 %.not7.i39, label %.critedge.i41, label %65, !prof !8

65:                                               ; preds = %62
  %66 = shl i64 %60, 31
  %67 = ashr i64 %66, 32
  %68 = shl i64 %63, 31
  %69 = ashr i64 %68, 32
  %70 = mul nsw i64 %67, %69
  %71 = add nsw i64 %70, 2147483648
  %72 = icmp ult i64 %71, 4294967296
  br i1 %72, label %73, label %78, !prof !14

73:                                               ; preds = %65
  %74 = shl nsw i64 %70, 1
  %75 = and i64 %74, 8589934590
  %76 = or disjoint i64 %75, 1
  %77 = inttoptr i64 %76 to ptr
  br label %lean_int_mul.exit42

78:                                               ; preds = %65
  %79 = tail call ptr @lean_big_int64_to_int(i64 noundef range(i64 -4611686016279904256, 4611686018427387905) %70) #3
  br label %lean_int_mul.exit42

.critedge.i41:                                    ; preds = %62, %lean_dec.exit24
  %80 = tail call ptr @lean_int_big_mul(ptr noundef %59, ptr noundef %5) #3
  br label %lean_int_mul.exit42

lean_int_mul.exit42:                              ; preds = %73, %78, %.critedge.i41
  %.0.i40 = phi ptr [ %80, %.critedge.i41 ], [ %77, %73 ], [ %79, %78 ]
  %81 = getelementptr inbounds nuw i8, ptr %1, i64 16
  %82 = load ptr, ptr %81, align 8, !tbaa !4
  %83 = ptrtoint ptr %.0.i40 to i64
  %84 = and i64 %83, 1
  %.not.i43 = icmp eq i64 %84, 0
  br i1 %.not.i43, label %104, label %85, !prof !8

85:                                               ; preds = %lean_int_mul.exit42
  %86 = ptrtoint ptr %82 to i64
  %87 = and i64 %86, 1
  %.not7.i44 = icmp eq i64 %87, 0
  br i1 %.not7.i44, label %lean_int_add.exit47.thread58, label %89, !prof !8

lean_int_add.exit47.thread58:                     ; preds = %85
  %88 = tail call ptr @lean_int_big_add(ptr noundef %.0.i40, ptr noundef %82) #3
  br label %lean_dec.exit23

89:                                               ; preds = %85
  %90 = shl i64 %83, 31
  %91 = ashr i64 %90, 32
  %92 = shl i64 %86, 31
  %93 = ashr i64 %92, 32
  %94 = add nsw i64 %93, %91
  %95 = add nsw i64 %94, 2147483648
  %96 = icmp ult i64 %95, 4294967296
  br i1 %96, label %97, label %102, !prof !14

97:                                               ; preds = %89
  %98 = shl nsw i64 %94, 1
  %99 = and i64 %98, 8589934590
  %100 = or disjoint i64 %99, 1
  %101 = inttoptr i64 %100 to ptr
  br label %lean_dec.exit23

102:                                              ; preds = %89
  %103 = tail call ptr @lean_big_int64_to_int(i64 noundef range(i64 -4611686016279904256, 4611686018427387905) %94) #3
  br label %lean_dec.exit23

104:                                              ; preds = %lean_int_mul.exit42
  %105 = tail call ptr @lean_int_big_add(ptr noundef %.0.i40, ptr noundef %82) #3
  %106 = load i32, ptr %.0.i40, align 4, !tbaa !9
  %107 = icmp sgt i32 %106, 1
  br i1 %107, label %108, label %110, !prof !14

108:                                              ; preds = %104
  %109 = add nsw i32 %106, -1
  store i32 %109, ptr %.0.i40, align 4, !tbaa !9
  br label %lean_dec.exit23

110:                                              ; preds = %104
  %.not.i25 = icmp eq i32 %106, 0
  br i1 %.not.i25, label %lean_dec.exit23, label %111

111:                                              ; preds = %110
  tail call void @lean_dec_ref_cold(ptr noundef nonnull %.0.i40) #3
  br label %lean_dec.exit23

lean_dec.exit23:                                  ; preds = %102, %97, %111, %110, %108, %lean_int_add.exit47.thread58
  %.0.i4557 = phi ptr [ %88, %lean_int_add.exit47.thread58 ], [ %105, %108 ], [ %105, %110 ], [ %105, %111 ], [ %103, %102 ], [ %101, %97 ]
  %112 = ptrtoint ptr %.0.i3654 to i64
  %113 = and i64 %112, 1
  %.not.i48 = icmp eq i64 %113, 0
  %.pre63 = ptrtoint ptr %.0.i4557 to i64
  %.pre = and i64 %.pre63, 1
  %114 = icmp eq i64 %.pre, 0
  br i1 %.not.i48, label %lean_int_add.exit52, label %115, !prof !8

115:                                              ; preds = %lean_dec.exit23
  br i1 %114, label %lean_int_add.exit52.thread67, label %117, !prof !8

lean_int_add.exit52.thread67:                     ; preds = %115
  %116 = tail call ptr @lean_int_big_add(ptr noundef %.0.i3654, ptr noundef %.0.i4557) #3
  br label %133

117:                                              ; preds = %115
  %118 = shl i64 %112, 31
  %119 = ashr i64 %118, 32
  %120 = shl i64 %.pre63, 31
  %121 = ashr i64 %120, 32
  %122 = add nsw i64 %121, %119
  %123 = add nsw i64 %122, 2147483648
  %124 = icmp ult i64 %123, 4294967296
  br i1 %124, label %125, label %130, !prof !14

125:                                              ; preds = %117
  %126 = shl nsw i64 %122, 1
  %127 = and i64 %126, 8589934590
  %128 = or disjoint i64 %127, 1
  %129 = inttoptr i64 %128 to ptr
  br label %lean_dec.exit21

130:                                              ; preds = %117
  %131 = tail call ptr @lean_big_int64_to_int(i64 noundef range(i64 -4611686016279904256, 4611686018427387905) %122) #3
  br label %lean_dec.exit21

lean_int_add.exit52:                              ; preds = %lean_dec.exit23
  %132 = tail call ptr @lean_int_big_add(ptr noundef %.0.i3654, ptr noundef %.0.i4557) #3
  br i1 %114, label %133, label %lean_dec.exit22.thread

133:                                              ; preds = %lean_int_add.exit52.thread67, %lean_int_add.exit52
  %134 = phi ptr [ %116, %lean_int_add.exit52.thread67 ], [ %132, %lean_int_add.exit52 ]
  %135 = load i32, ptr %.0.i4557, align 4, !tbaa !9
  %136 = icmp sgt i32 %135, 1
  br i1 %136, label %137, label %139, !prof !14

137:                                              ; preds = %133
  %138 = add nsw i32 %135, -1
  store i32 %138, ptr %.0.i4557, align 4, !tbaa !9
  br label %lean_dec.exit22

139:                                              ; preds = %133
  %.not.i27 = icmp eq i32 %135, 0
  br i1 %.not.i27, label %lean_dec.exit22, label %140

140:                                              ; preds = %139
  tail call void @lean_dec_ref_cold(ptr noundef nonnull %.0.i4557) #3
  br label %lean_dec.exit22

lean_dec.exit22:                                  ; preds = %140, %139, %137
  br i1 %.not.i48, label %lean_dec.exit22.thread, label %lean_dec.exit21

lean_dec.exit22.thread:                           ; preds = %lean_int_add.exit52, %lean_dec.exit22
  %.0.i506671 = phi ptr [ %134, %lean_dec.exit22 ], [ %132, %lean_int_add.exit52 ]
  %141 = load i32, ptr %.0.i3654, align 4, !tbaa !9
  %142 = icmp sgt i32 %141, 1
  br i1 %142, label %143, label %145, !prof !14

143:                                              ; preds = %lean_dec.exit22.thread
  %144 = add nsw i32 %141, -1
  store i32 %144, ptr %.0.i3654, align 4, !tbaa !9
  br label %lean_dec.exit21

145:                                              ; preds = %lean_dec.exit22.thread
  %.not.i29 = icmp eq i32 %141, 0
  br i1 %.not.i29, label %lean_dec.exit21, label %146

146:                                              ; preds = %145
  tail call void @lean_dec_ref_cold(ptr noundef nonnull %.0.i3654) #3
  br label %lean_dec.exit21

lean_dec.exit21:                                  ; preds = %125, %130, %146, %145, %143, %lean_dec.exit22
  %.0.i506670 = phi ptr [ %.0.i506671, %146 ], [ %.0.i506671, %145 ], [ %.0.i506671, %143 ], [ %134, %lean_dec.exit22 ], [ %131, %130 ], [ %129, %125 ]
  %147 = tail call ptr @l_Std_Time_Duration_ofNanoseconds(ptr noundef %.0.i506670)
  %148 = ptrtoint ptr %.0.i506670 to i64
  %149 = and i64 %148, 1
  %.not60 = icmp eq i64 %149, 0
  br i1 %.not60, label %150, label %lean_dec.exit

150:                                              ; preds = %lean_dec.exit21
  %151 = load i32, ptr %.0.i506670, align 4, !tbaa !9
  %152 = icmp sgt i32 %151, 1
  br i1 %152, label %153, label %155, !prof !14

153:                                              ; preds = %150
  %154 = add nsw i32 %151, -1
  store i32 %154, ptr %.0.i506670, align 4, !tbaa !9
  br label %lean_dec.exit

155:                                              ; preds = %150
  %.not.i31 = icmp eq i32 %151, 0
  br i1 %.not.i31, label %lean_dec.exit, label %156

156:                                              ; preds = %155
  tail call void @lean_dec_ref_cold(ptr noundef nonnull %.0.i506670) #3
  br label %lean_dec.exit

lean_dec.exit:                                    ; preds = %156, %155, %153, %lean_dec.exit21
  ret ptr %147
}